; Function Attrs: nounwind uwtable
define internal fastcc i32 @imap_perform_login(ptr noundef %0, ptr noundef readonly captures(none) %1) unnamed_addr #0 {
  %3 = getelementptr inbounds nuw i8, ptr %0, i64 4992
  %4 = load ptr, ptr %3, align 8, !tbaa !142
  %.not = icmp eq ptr %4, null
  br i1 %.not, label %.sink.split, label %5

5:                                                ; preds = %2
  %6 = getelementptr inbounds nuw i8, ptr %1, i64 480
  %7 = load ptr, ptr %6, align 8, !tbaa !143
  %8 = tail call fastcc ptr @imap_atom(ptr noundef %7, i1 noundef zeroext false)
  %9 = getelementptr inbounds nuw i8, ptr %1, i64 488
  %10 = load ptr, ptr %9, align 8, !tbaa !144
  %11 = tail call fastcc ptr @imap_atom(ptr noundef %10, i1 noundef zeroext false)
  %.not15 = icmp eq ptr %8, null
  %12 = select i1 %.not15, ptr @.str.15, ptr %8
  %.not16 = icmp eq ptr %11, null
  %13 = select i1 %.not16, ptr @.str.15, ptr %11
  %14 = tail call i32 (ptr, ptr, ...) @imap_sendf(ptr noundef nonnull %0, ptr noundef nonnull @.str.14, ptr noundef nonnull %12, ptr noundef nonnull %13)
  %15 = load ptr, ptr @Curl_cfree, align 8, !tbaa !3
  tail call void %15(ptr noundef %8) #7
  %16 = load ptr, ptr @Curl_cfree, align 8, !tbaa !3
  tail call void %16(ptr noundef %11) #7
  %.not17 = icmp eq i32 %14, 0
  br i1 %.not17, label %.sink.split, label %19

.sink.split:                                      ; preds = %5, %2
  %.sink = phi i32 [ 0, %2 ], [ 6, %5 ]
  %17 = getelementptr i8, ptr %0, i64 24
  %.val = load ptr, ptr %17, align 8, !tbaa !98
  %18 = getelementptr inbounds nuw i8, ptr %.val, i64 1328
  store i32 %.sink, ptr %18, align 8, !tbaa !110
  br label %19

19:                                               ; preds = %.sink.split, %5
  %.0 = phi i32 [ %14, %5 ], [ 0, %.sink.split ]
  ret i32 %.0
}